target datalayout = "e-m:e-p270:32:32-p271:32:32-p272:64:64-i64:64-i128:128-f80:128-n8:16:32:64-S128"
target triple = "x86_64-pc-linux-gnu"

%"class.gmx::GlobalCommandLineHelpContext" = type { i8 }

; Function Attrs: mustprogress uwtable
define void @_ZN3gmx25writeCommandLineHelpCMainERKNS_22CommandLineHelpContextEPKcPFiiPPcE(ptr noundef nonnull align 8 dereferenceable(8) %0, ptr noundef %1, ptr noundef %2) #0 personality ptr @__gxx_personality_v0 {
  %4 = alloca ptr, align 8
  %5 = alloca ptr, align 8
  %6 = alloca ptr, align 8
  %7 = alloca [2 x ptr], align 16
  %8 = alloca i32, align 4
  %9 = alloca %"class.gmx::GlobalCommandLineHelpContext", align 1
  %10 = alloca ptr, align 8
  %11 = alloca i32, align 4
  store ptr %0, ptr %4, align 8
  store ptr %1, ptr %5, align 8
  store ptr %2, ptr %6, align 8
  store i32 1, ptr %8, align 4
  %12 = load ptr, ptr %5, align 8
  %13 = getelementptr inbounds [2 x ptr], ptr %7, i64 0, i64 0
  store ptr %12, ptr %13, align 16
  %14 = getelementptr inbounds [2 x ptr], ptr %7, i64 0, i64 1
  store ptr null, ptr %14, align 8
  %15 = load ptr, ptr %4, align 8
  call void @_ZN3gmx28GlobalCommandLineHelpContextC1ERKNS_22CommandLineHelpContextE(ptr noundef nonnull align 1 dereferenceable(1) %9, ptr noundef nonnull align 8 dereferenceable(8) %15)
  %16 = load ptr, ptr %6, align 8
  %17 = load i32, ptr %8, align 4
  %18 = getelementptr inbounds [2 x ptr], ptr %7, i64 0, i64 0
  %19 = invoke noundef i32 %16(i32 noundef %17, ptr noundef %18)
          to label %20 unwind label %21

20:                                               ; preds = %3
  call void @_ZN3gmx28GlobalCommandLineHelpContextD1Ev(ptr noundef nonnull align 1 dereferenceable(1) %9) #8
  ret void

21:                                               ; preds = %3
  %22 = landingpad { ptr, i32 }
          cleanup
  %23 = extractvalue { ptr, i32 } %22, 0
  store ptr %23, ptr %10, align 8
  %24 = extractvalue { ptr, i32 } %22, 1
  store i32 %24, ptr %11, align 4
  call void @_ZN3gmx28GlobalCommandLineHelpContextD1Ev(ptr noundef nonnull align 1 dereferenceable(1) %9) #8
  br label %25

25:                                               ; preds = %21
  %26 = load ptr, ptr %10, align 8
  %27 = load i32, ptr %11, align 4
  %28 = insertvalue { ptr, i32 } poison, ptr %26, 0
  %29 = insertvalue { ptr, i32 } %28, i32 %27, 1
  resume { ptr, i32 } %29
}