; Function Attrs: mustprogress uwtable
define void @_ZN3gmx25writeCommandLineHelpCMainERKNS_22CommandLineHelpContextEPKcPFiiPPcE(ptr noundef nonnull align 8 dereferenceable(8) %0, ptr noundef %1, ptr nocapture noundef readonly %2) local_unnamed_addr #0 personality ptr @__gxx_personality_v0 {
  %4 = alloca [2 x ptr], align 16
  %5 = alloca %"class.gmx::GlobalCommandLineHelpContext", align 1
  store ptr %1, ptr %4, align 16
  %6 = getelementptr inbounds i8, ptr %4, i64 8
  store ptr null, ptr %6, align 8
  call void @_ZN3gmx28GlobalCommandLineHelpContextC1ERKNS_22CommandLineHelpContextE(ptr noundef nonnull align 1 dereferenceable(1) %5, ptr noundef nonnull align 8 dereferenceable(8) %0)
  %7 = invoke noundef i32 %2(i32 noundef 1, ptr noundef nonnull %4)
          to label %8 unwind label %9

8:                                                ; preds = %3
  call void @_ZN3gmx28GlobalCommandLineHelpContextD1Ev(ptr noundef nonnull align 1 dereferenceable(1) %5) #10
  ret void

9:                                                ; preds = %3
  %10 = landingpad { ptr, i32 }
          cleanup
  call void @_ZN3gmx28GlobalCommandLineHelpContextD1Ev(ptr noundef nonnull align 1 dereferenceable(1) %5) #10
  resume { ptr, i32 } %10
}